; Function Attrs: nofree norecurse nosync nounwind memory(read, argmem: readwrite, inaccessiblemem: none) uwtable
define internal void @yuv2ya16be_2_c(ptr readnone captures(none) %0, ptr noundef readonly captures(none) %1, ptr readnone captures(none) %2, ptr readnone captures(none) %3, ptr noundef readonly captures(address_is_null) %4, ptr noundef writeonly captures(none) %5, i32 noundef %6, i32 noundef %7, i32 %8, i32 %9) #3 {
  %.not.i = icmp eq ptr %4, null
  br i1 %.not.i, label %.thread, label %11

11:                                               ; preds = %10
  %12 = load ptr, ptr %4, align 8, !tbaa !48
  %.not45.i = icmp eq ptr %12, null
  br i1 %.not45.i, label %.thread, label %16

.thread:                                          ; preds = %11, %10
  %13 = load ptr, ptr %1, align 8, !tbaa !48
  %14 = getelementptr inbounds nuw i8, ptr %1, i64 8
  %15 = load ptr, ptr %14, align 8, !tbaa !48
  br label %.thread17

16:                                               ; preds = %11
  %17 = getelementptr inbounds nuw i8, ptr %4, i64 8
  %18 = load ptr, ptr %17, align 8, !tbaa !48
  %.not = icmp eq ptr %18, null
  %19 = load ptr, ptr %1, align 8, !tbaa !48
  %20 = getelementptr inbounds nuw i8, ptr %1, i64 8
  %21 = load ptr, ptr %20, align 8, !tbaa !48
  br i1 %.not, label %.thread17, label %.thread17.thread

.thread17:                                        ; preds = %.thread, %16
  %22 = phi ptr [ %19, %16 ], [ %13, %.thread ]
  %23 = phi ptr [ %21, %16 ], [ %15, %.thread ]
  %24 = sub nsw i32 4096, %7
  %25 = icmp sgt i32 %6, 0
  br i1 %25, label %.lr.ph.split.preheader, label %yuv2ya16_2_c_template.exit

.thread17.thread:                                 ; preds = %16
  %26 = sub nsw i32 4096, %7
  %27 = icmp sgt i32 %6, 0
  br i1 %27, label %.lr.ph.split.us.preheader, label %yuv2ya16_2_c_template.exit

.lr.ph.split.preheader:                           ; preds = %.thread17
  %wide.trip.count = zext nneg i32 %6 to i64
  br label %.lr.ph.split

.lr.ph.split.us.preheader:                        ; preds = %.thread17.thread
  %wide.trip.count24 = zext nneg i32 %6 to i64
  br label %.lr.ph.split.us

.lr.ph.split.us:                                  ; preds = %.lr.ph.split.us.preheader, %.lr.ph.split.us
  %indvars.iv21 = phi i64 [ 0, %.lr.ph.split.us.preheader ], [ %indvars.iv.next22, %.lr.ph.split.us ]
  %28 = getelementptr inbounds nuw i32, ptr %19, i64 %indvars.iv21
  %29 = load i32, ptr %28, align 4, !tbaa !49
  %30 = mul nsw i32 %29, %26
  %31 = getelementptr inbounds nuw i32, ptr %21, i64 %indvars.iv21
  %32 = load i32, ptr %31, align 4, !tbaa !49
  %33 = mul nsw i32 %32, %7
  %34 = add nsw i32 %33, %30
  %35 = ashr i32 %34, 15
  %.not.i47.i.us = icmp ult i32 %35, 65536
  %isnotneg.i48.i.us = icmp sgt i32 %35, -1
  %36 = sext i1 %isnotneg.i48.i.us to i16
  %37 = trunc nuw i32 %35 to i16
  %.0.i49.i.us = select i1 %.not.i47.i.us, i16 %37, i16 %36
  %38 = getelementptr inbounds nuw i32, ptr %12, i64 %indvars.iv21
  %39 = load i32, ptr %38, align 4, !tbaa !49
  %40 = mul nsw i32 %39, %26
  %41 = getelementptr inbounds nuw i32, ptr %18, i64 %indvars.iv21
  %42 = load i32, ptr %41, align 4, !tbaa !49
  %43 = mul nsw i32 %42, %7
  %44 = add nsw i32 %43, %40
  %45 = ashr i32 %44, 15
  %.not.i.i.us = icmp ult i32 %45, 65536
  %isnotneg.i.i.us = icmp sgt i32 %45, -1
  %46 = sext i1 %isnotneg.i.i.us to i16
  %47 = trunc nuw i32 %45 to i16
  %.0.i.i.us = select i1 %.not.i.i.us, i16 %47, i16 %46
  %48 = tail call i16 @llvm.bswap.i16(i16 %.0.i49.i.us)
  %.idx26 = shl nuw nsw i64 %indvars.iv21, 2
  %49 = getelementptr inbounds nuw i8, ptr %5, i64 %.idx26
  store i16 %48, ptr %49, align 1, !tbaa !41
  %50 = tail call i16 @llvm.bswap.i16(i16 %.0.i.i.us)
  %51 = getelementptr inbounds nuw i8, ptr %49, i64 2
  store i16 %50, ptr %51, align 1, !tbaa !41
  %indvars.iv.next22 = add nuw nsw i64 %indvars.iv21, 1
  %exitcond25.not = icmp eq i64 %indvars.iv.next22, %wide.trip.count24
  br i1 %exitcond25.not, label %yuv2ya16_2_c_template.exit, label %.lr.ph.split.us, !llvm.loop !150

.lr.ph.split:                                     ; preds = %.lr.ph.split.preheader, %.lr.ph.split
  %indvars.iv = phi i64 [ 0, %.lr.ph.split.preheader ], [ %indvars.iv.next, %.lr.ph.split ]
  %52 = getelementptr inbounds nuw i32, ptr %22, i64 %indvars.iv
  %53 = load i32, ptr %52, align 4, !tbaa !49
  %54 = mul nsw i32 %53, %24
  %55 = getelementptr inbounds nuw i32, ptr %23, i64 %indvars.iv
  %56 = load i32, ptr %55, align 4, !tbaa !49
  %57 = mul nsw i32 %56, %7
  %58 = add nsw i32 %57, %54
  %59 = ashr i32 %58, 15
  %.not.i47.i = icmp ult i32 %59, 65536
  %isnotneg.i48.i = icmp sgt i32 %59, -1
  %60 = sext i1 %isnotneg.i48.i to i16
  %61 = trunc nuw i32 %59 to i16
  %.0.i49.i = select i1 %.not.i47.i, i16 %61, i16 %60
  %62 = tail call i16 @llvm.bswap.i16(i16 %.0.i49.i)
  %.idx = shl nuw nsw i64 %indvars.iv, 2
  %63 = getelementptr inbounds nuw i8, ptr %5, i64 %.idx
  store i16 %62, ptr %63, align 1, !tbaa !41
  %64 = getelementptr inbounds nuw i8, ptr %63, i64 2
  store i16 -1, ptr %64, align 1, !tbaa !41
  %indvars.iv.next = add nuw nsw i64 %indvars.iv, 1
  %exitcond.not = icmp eq i64 %indvars.iv.next, %wide.trip.count
  br i1 %exitcond.not, label %yuv2ya16_2_c_template.exit, label %.lr.ph.split, !llvm.loop !150

yuv2ya16_2_c_template.exit:                       ; preds = %.lr.ph.split.us, %.lr.ph.split, %.thread17.thread, %.thread17
  ret void
}